target datalayout = "e-m:e-p270:32:32-p271:32:32-p272:64:64-i64:64-i128:128-f80:128-n8:16:32:64-S128"
target triple = "x86_64-pc-linux-gnu"

@H5FD_init_g = external global i8, align 1
@H5_libterm_g = external global i8, align 1
@.str = private unnamed_addr constant [101 x i8] c"generated/home/dtcxzyw/WorkSpace/Projects/compilers/llvm-opt-benchmark/bench/hdf5/hdf5/src/H5FDint.c\00", align 1
@__func__.H5FD_locate_signature = private unnamed_addr constant [22 x i8] c"H5FD_locate_signature\00", align 1
@H5E_IO_g = external global i64, align 8
@H5E_CANTINIT_g = external global i64, align 8
@.str.1 = private unnamed_addr constant [31 x i8] c"unable to obtain EOF/EOA value\00", align 1
@.str.2 = private unnamed_addr constant [43 x i8] c"unable to set EOA value for file signature\00", align 1
@.str.3 = private unnamed_addr constant [30 x i8] c"unable to read file signature\00", align 1
@.str.4 = private unnamed_addr constant [9 x i8] c"\89HDF\0D\0A\1A\0A\00", align 1
@.str.5 = private unnamed_addr constant [26 x i8] c"unable to reset EOA value\00", align 1

; Function Attrs: nounwind uwtable
define i32 @H5FD_locate_signature(ptr noundef %0, ptr noundef %1) #0 {
  %3 = alloca ptr, align 8
  %4 = alloca ptr, align 8
  %5 = alloca i64, align 8
  %6 = alloca i64, align 8
  %7 = alloca i64, align 8
  %8 = alloca [8 x i8], align 1
  %9 = alloca i32, align 4
  %10 = alloca i32, align 4
  %11 = alloca i32, align 4
  %12 = alloca i8, align 1
  store ptr %0, ptr %3, align 8, !tbaa !3
  store ptr %1, ptr %4, align 8, !tbaa !8
  call void @llvm.lifetime.start.p0(i64 8, ptr %5) #8
  store i64 -1, ptr %5, align 8, !tbaa !10
  call void @llvm.lifetime.start.p0(i64 8, ptr %6) #8
  store i64 -1, ptr %6, align 8, !tbaa !10
  call void @llvm.lifetime.start.p0(i64 8, ptr %7) #8
  store i64 -1, ptr %7, align 8, !tbaa !10
  call void @llvm.lifetime.start.p0(i64 8, ptr %8) #8
  call void @llvm.lifetime.start.p0(i64 4, ptr %9) #8
  call void @llvm.lifetime.start.p0(i64 4, ptr %10) #8
  call void @llvm.lifetime.start.p0(i64 4, ptr %11) #8
  store i32 0, ptr %11, align 4, !tbaa !12
  call void @llvm.lifetime.start.p0(i64 1, ptr %12) #8
  store i8 0, ptr %12, align 1, !tbaa !14
  %13 = load i8, ptr @H5FD_init_g, align 1, !tbaa !14, !range !16, !noundef !17
  %14 = trunc i8 %13 to i1
  br i1 %14, label %19, label %15

15:                                               ; preds = %2
  %16 = load i8, ptr @H5_libterm_g, align 1, !tbaa !14, !range !16, !noundef !17
  %17 = trunc i8 %16 to i1
  %18 = xor i1 %17, true
  br label %19

19:                                               ; preds = %15, %2
  %20 = phi i1 [ true, %2 ], [ %18, %15 ]
  %21 = xor i1 %20, true
  %22 = xor i1 %21, true
  %23 = zext i1 %22 to i32
  %24 = sext i32 %23 to i64
  %25 = call i64 @llvm.expect.i64(i64 %24, i64 1)
  %26 = icmp ne i64 %25, 0
  br i1 %26, label %27, label %187

27:                                               ; preds = %19
  %28 = load ptr, ptr %3, align 8, !tbaa !3
  %29 = call i64 @H5FD_get_eof(ptr noundef %28, i32 noundef 1)
  store i64 %29, ptr %7, align 8, !tbaa !10
  %30 = load ptr, ptr %3, align 8, !tbaa !3
  %31 = call i64 @H5FD_get_eoa(ptr noundef %30, i32 noundef 1)
  store i64 %31, ptr %6, align 8, !tbaa !10
  %32 = load i64, ptr %7, align 8, !tbaa !10
  %33 = load i64, ptr %6, align 8, !tbaa !10
  %34 = icmp ugt i64 %32, %33
  br i1 %34, label %35, label %37

35:                                               ; preds = %27
  %36 = load i64, ptr %7, align 8, !tbaa !10
  br label %39

37:                                               ; preds = %27
  %38 = load i64, ptr %6, align 8, !tbaa !10
  br label %39

39:                                               ; preds = %37, %35
  %40 = phi i64 [ %36, %35 ], [ %38, %37 ]
  store i64 %40, ptr %5, align 8, !tbaa !10
  %41 = load i64, ptr %5, align 8, !tbaa !10
  %42 = icmp eq i64 -1, %41
  br i1 %42, label %43, label %62

43:                                               ; preds = %39
  br label %44

44:                                               ; preds = %43
  br label %45

45:                                               ; preds = %44
  br label %46

46:                                               ; preds = %45
  %47 = load i64, ptr @H5E_IO_g, align 8, !tbaa !10
  %48 = load i64, ptr @H5E_CANTINIT_g, align 8, !tbaa !10
  %49 = call i32 (ptr, ptr, i32, i64, i64, ptr, ...) @H5E_printf_stack(ptr noundef @.str, ptr noundef @__func__.H5FD_locate_signature, i32 noundef 169, i64 noundef %47, i64 noundef %48, ptr noundef @.str.1)
  br label %50

50:                                               ; preds = %46
  br label %51

51:                                               ; preds = %50
  store i8 1, ptr %12, align 1, !tbaa !14
  %52 = load i8, ptr %12, align 1, !tbaa !14, !range !16, !noundef !17
  %53 = trunc i8 %52 to i1
  %54 = zext i1 %53 to i8
  store i8 %54, ptr %12, align 1, !tbaa !14
  br label %55

55:                                               ; preds = %51
  br label %56

56:                                               ; preds = %55
  br label %57

57:                                               ; preds = %56
  store i32 -1, ptr %11, align 4, !tbaa !12
  br label %186

58:                                               ; No predecessors!
  br label %59

59:                                               ; preds = %58
  br label %60

60:                                               ; preds = %59
  br label %61

61:                                               ; preds = %60
  br label %62

62:                                               ; preds = %61, %39
  store i32 0, ptr %10, align 4, !tbaa !12
  br label %63

63:                                               ; preds = %69, %62
  %64 = load i64, ptr %5, align 8, !tbaa !10
  %65 = icmp ne i64 %64, 0
  br i1 %65, label %66, label %72

66:                                               ; preds = %63
  %67 = load i64, ptr %5, align 8, !tbaa !10
  %68 = lshr i64 %67, 1
  store i64 %68, ptr %5, align 8, !tbaa !10
  br label %69

69:                                               ; preds = %66
  %70 = load i32, ptr %10, align 4, !tbaa !12
  %71 = add i32 %70, 1
  store i32 %71, ptr %10, align 4, !tbaa !12
  br label %63, !llvm.loop !18

72:                                               ; preds = %63
  %73 = load i32, ptr %10, align 4, !tbaa !12
  %74 = icmp ugt i32 %73, 9
  br i1 %74, label %75, label %77

75:                                               ; preds = %72
  %76 = load i32, ptr %10, align 4, !tbaa !12
  br label %78

77:                                               ; preds = %72
  br label %78

78:                                               ; preds = %77, %75
  %79 = phi i32 [ %76, %75 ], [ 9, %77 ]
  store i32 %79, ptr %10, align 4, !tbaa !12
  store i32 8, ptr %9, align 4, !tbaa !12
  br label %80

80:                                               ; preds = %149, %78
  %81 = load i32, ptr %9, align 4, !tbaa !12
  %82 = load i32, ptr %10, align 4, !tbaa !12
  %83 = icmp ult i32 %81, %82
  br i1 %83, label %84, label %152

84:                                               ; preds = %80
  %85 = load i32, ptr %9, align 4, !tbaa !12
  %86 = icmp eq i32 8, %85
  br i1 %86, label %87, label %88

87:                                               ; preds = %84
  br label %92

88:                                               ; preds = %84
  %89 = load i32, ptr %9, align 4, !tbaa !12
  %90 = zext i32 %89 to i64
  %91 = shl i64 1, %90
  br label %92

92:                                               ; preds = %88, %87
  %93 = phi i64 [ 0, %87 ], [ %91, %88 ]
  store i64 %93, ptr %5, align 8, !tbaa !10
  %94 = load ptr, ptr %3, align 8, !tbaa !3
  %95 = load i64, ptr %5, align 8, !tbaa !10
  %96 = add i64 %95, 8
  %97 = call i32 @H5FD_set_eoa(ptr noundef %94, i32 noundef 1, i64 noundef %96)
  %98 = icmp slt i32 %97, 0
  br i1 %98, label %99, label %118

99:                                               ; preds = %92
  br label %100

100:                                              ; preds = %99
  br label %101

101:                                              ; preds = %100
  br label %102

102:                                              ; preds = %101
  %103 = load i64, ptr @H5E_IO_g, align 8, !tbaa !10
  %104 = load i64, ptr @H5E_CANTINIT_g, align 8, !tbaa !10
  %105 = call i32 (ptr, ptr, i32, i64, i64, ptr, ...) @H5E_printf_stack(ptr noundef @.str, ptr noundef @__func__.H5FD_locate_signature, i32 noundef 180, i64 noundef %103, i64 noundef %104, ptr noundef @.str.2)
  br label %106

106:                                              ; preds = %102
  br label %107

107:                                              ; preds = %106
  store i8 1, ptr %12, align 1, !tbaa !14
  %108 = load i8, ptr %12, align 1, !tbaa !14, !range !16, !noundef !17
  %109 = trunc i8 %108 to i1
  %110 = zext i1 %109 to i8
  store i8 %110, ptr %12, align 1, !tbaa !14
  br label %111

111:                                              ; preds = %107
  br label %112

112:                                              ; preds = %111
  br label %113

113:                                              ; preds = %112
  store i32 -1, ptr %11, align 4, !tbaa !12
  br label %186

114:                                              ; No predecessors!
  br label %115

115:                                              ; preds = %114
  br label %116

116:                                              ; preds = %115
  br label %117

117:                                              ; preds = %116
  br label %118

118:                                              ; preds = %117, %92
  %119 = load ptr, ptr %3, align 8, !tbaa !3
  %120 = load i64, ptr %5, align 8, !tbaa !10
  %121 = getelementptr inbounds [8 x i8], ptr %8, i64 0, i64 0
  %122 = call i32 @H5FD_read(ptr noundef %119, i32 noundef 1, i64 noundef %120, i64 noundef 8, ptr noundef %121)
  %123 = icmp slt i32 %122, 0
  br i1 %123, label %124, label %143

124:                                              ; preds = %118
  br label %125

125:                                              ; preds = %124
  br label %126

126:                                              ; preds = %125
  br label %127

127:                                              ; preds = %126
  %128 = load i64, ptr @H5E_IO_g, align 8, !tbaa !10
  %129 = load i64, ptr @H5E_CANTINIT_g, align 8, !tbaa !10
  %130 = call i32 (ptr, ptr, i32, i64, i64, ptr, ...) @H5E_printf_stack(ptr noundef @.str, ptr noundef @__func__.H5FD_locate_signature, i32 noundef 182, i64 noundef %128, i64 noundef %129, ptr noundef @.str.3)
  br label %131

131:                                              ; preds = %127
  br label %132

132:                                              ; preds = %131
  store i8 1, ptr %12, align 1, !tbaa !14
  %133 = load i8, ptr %12, align 1, !tbaa !14, !range !16, !noundef !17
  %134 = trunc i8 %133 to i1
  %135 = zext i1 %134 to i8
  store i8 %135, ptr %12, align 1, !tbaa !14
  br label %136

136:                                              ; preds = %132
  br label %137

137:                                              ; preds = %136
  br label %138

138:                                              ; preds = %137
  store i32 -1, ptr %11, align 4, !tbaa !12
  br label %186

139:                                              ; No predecessors!
  br label %140

140:                                              ; preds = %139
  br label %141

141:                                              ; preds = %140
  br label %142

142:                                              ; preds = %141
  br label %143

143:                                              ; preds = %142, %118
  %144 = getelementptr inbounds [8 x i8], ptr %8, i64 0, i64 0
  %145 = call i32 @memcmp(ptr noundef %144, ptr noundef @.str.4, i64 noundef 8) #9
  %146 = icmp ne i32 %145, 0
  br i1 %146, label %148, label %147

147:                                              ; preds = %143
  br label %152

148:                                              ; preds = %143
  br label %149

149:                                              ; preds = %148
  %150 = load i32, ptr %9, align 4, !tbaa !12
  %151 = add i32 %150, 1
  store i32 %151, ptr %9, align 4, !tbaa !12
  br label %80, !llvm.loop !20

152:                                              ; preds = %147, %80
  %153 = load i32, ptr %9, align 4, !tbaa !12
  %154 = load i32, ptr %10, align 4, !tbaa !12
  %155 = icmp uge i32 %153, %154
  br i1 %155, label %156, label %182

156:                                              ; preds = %152
  %157 = load ptr, ptr %3, align 8, !tbaa !3
  %158 = load i64, ptr %6, align 8, !tbaa !10
  %159 = call i32 @H5FD_set_eoa(ptr noundef %157, i32 noundef 1, i64 noundef %158)
  %160 = icmp slt i32 %159, 0
  br i1 %160, label %161, label %180

161:                                              ; preds = %156
  br label %162

162:                                              ; preds = %161
  br label %163

163:                                              ; preds = %162
  br label %164

164:                                              ; preds = %163
  %165 = load i64, ptr @H5E_IO_g, align 8, !tbaa !10
  %166 = load i64, ptr @H5E_CANTINIT_g, align 8, !tbaa !10
  %167 = call i32 (ptr, ptr, i32, i64, i64, ptr, ...) @H5E_printf_stack(ptr noundef @.str, ptr noundef @__func__.H5FD_locate_signature, i32 noundef 192, i64 noundef %165, i64 noundef %166, ptr noundef @.str.5)
  br label %168

168:                                              ; preds = %164
  br label %169

169:                                              ; preds = %168
  store i8 1, ptr %12, align 1, !tbaa !14
  %170 = load i8, ptr %12, align 1, !tbaa !14, !range !16, !noundef !17
  %171 = trunc i8 %170 to i1
  %172 = zext i1 %171 to i8
  store i8 %172, ptr %12, align 1, !tbaa !14
  br label %173

173:                                              ; preds = %169
  br label %174

174:                                              ; preds = %173
  br label %175

175:                                              ; preds = %174
  store i32 -1, ptr %11, align 4, !tbaa !12
  br label %186

176:                                              ; No predecessors!
  br label %177

177:                                              ; preds = %176
  br label %178

178:                                              ; preds = %177
  br label %179

179:                                              ; preds = %178
  br label %180

180:                                              ; preds = %179, %156
  %181 = load ptr, ptr %4, align 8, !tbaa !8
  store i64 -1, ptr %181, align 8, !tbaa !10
  br label %185

182:                                              ; preds = %152
  %183 = load i64, ptr %5, align 8, !tbaa !10
  %184 = load ptr, ptr %4, align 8, !tbaa !8
  store i64 %183, ptr %184, align 8, !tbaa !10
  br label %185

185:                                              ; preds = %182, %180
  br label %186

186:                                              ; preds = %185, %175, %138, %113, %57
  br label %187

187:                                              ; preds = %186, %19
  %188 = load i32, ptr %11, align 4, !tbaa !12
  call void @llvm.lifetime.end.p0(i64 1, ptr %12) #8
  call void @llvm.lifetime.end.p0(i64 4, ptr %11) #8
  call void @llvm.lifetime.end.p0(i64 4, ptr %10) #8
  call void @llvm.lifetime.end.p0(i64 4, ptr %9) #8
  call void @llvm.lifetime.end.p0(i64 8, ptr %8) #8
  call void @llvm.lifetime.end.p0(i64 8, ptr %7) #8
  call void @llvm.lifetime.end.p0(i64 8, ptr %6) #8
  call void @llvm.lifetime.end.p0(i64 8, ptr %5) #8
  ret i32 %188
}