; Function Attrs: nounwind uwtable
define range(i32 -1, 1) i32 @H5FD_locate_signature(ptr noundef %0, ptr noundef writeonly captures(none) %1) local_unnamed_addr #0 {
  %3 = alloca [8 x i8], align 1
  call void @llvm.lifetime.start.p0(i64 8, ptr nonnull %3) #12
  %4 = load i8, ptr @H5FD_init_g, align 1, !tbaa !3, !range !7, !noundef !8
  %5 = trunc nuw i8 %4 to i1
  %6 = load i8, ptr @H5_libterm_g, align 1, !range !7
  %7 = trunc nuw i8 %6 to i1
  %8 = xor i1 %7, true
  %9 = select i1 %5, i1 true, i1 %8
  br i1 %9, label %10, label %50, !prof !9

10:                                               ; preds = %2
  %11 = tail call i64 @H5FD_get_eof(ptr noundef %0, i32 noundef 1)
  %12 = tail call i64 @H5FD_get_eoa(ptr noundef %0, i32 noundef 1)
  %13 = tail call i64 @llvm.umax.i64(i64 %11, i64 %12)
  switch i64 %13, label %.lr.ph [
    i64 -1, label %14
    i64 0, label %._crit_edge
  ]

14:                                               ; preds = %10
  %15 = load i64, ptr @H5E_IO_g, align 8, !tbaa !10
  %16 = load i64, ptr @H5E_CANTINIT_g, align 8, !tbaa !10
  %17 = tail call i32 (ptr, ptr, i32, i64, i64, ptr, ...) @H5E_printf_stack(ptr noundef nonnull @.str, ptr noundef nonnull @__func__.H5FD_locate_signature, i32 noundef 169, i64 noundef %15, i64 noundef %16, ptr noundef nonnull @.str.1) #12
  br label %50

.lr.ph:                                           ; preds = %10, %.lr.ph
  %.03244 = phi i32 [ %19, %.lr.ph ], [ 0, %10 ]
  %.03443 = phi i64 [ %18, %.lr.ph ], [ %13, %10 ]
  %18 = lshr i64 %.03443, 1
  %19 = add nuw nsw i32 %.03244, 1
  %.not = icmp ult i64 %.03443, 2
  br i1 %.not, label %._crit_edge, label %.lr.ph, !llvm.loop !12

._crit_edge:                                      ; preds = %.lr.ph, %10
  %.032.lcssa = phi i32 [ 0, %10 ], [ %19, %.lr.ph ]
  %20 = tail call i32 @llvm.umax.i32(i32 %.032.lcssa, i32 9)
  %wide.trip.count = zext i32 %20 to i64
  br label %22

21:                                               ; preds = %40
  %indvars.iv.next = add nuw nsw i64 %indvars.iv, 1
  %exitcond.not = icmp eq i64 %indvars.iv.next, %wide.trip.count
  br i1 %exitcond.not, label %41, label %22, !llvm.loop !14

22:                                               ; preds = %._crit_edge, %21
  %indvars.iv = phi i64 [ 8, %._crit_edge ], [ %indvars.iv.next, %21 ]
  %23 = icmp eq i64 %indvars.iv, 8
  %24 = shl nuw i64 1, %indvars.iv
  %25 = select i1 %23, i64 0, i64 %24
  %26 = add nuw i64 %25, 8
  %27 = call i32 @H5FD_set_eoa(ptr noundef %0, i32 noundef 1, i64 noundef %26)
  %28 = icmp slt i32 %27, 0
  br i1 %28, label %29, label %33

29:                                               ; preds = %22
  %30 = load i64, ptr @H5E_IO_g, align 8, !tbaa !10
  %31 = load i64, ptr @H5E_CANTINIT_g, align 8, !tbaa !10
  %32 = call i32 (ptr, ptr, i32, i64, i64, ptr, ...) @H5E_printf_stack(ptr noundef nonnull @.str, ptr noundef nonnull @__func__.H5FD_locate_signature, i32 noundef 180, i64 noundef %30, i64 noundef %31, ptr noundef nonnull @.str.2) #12
  br label %50

33:                                               ; preds = %22
  %34 = call i32 @H5FD_read(ptr noundef %0, i32 noundef 1, i64 noundef %25, i64 noundef 8, ptr noundef nonnull %3)
  %35 = icmp slt i32 %34, 0
  br i1 %35, label %36, label %40

36:                                               ; preds = %33
  %37 = load i64, ptr @H5E_IO_g, align 8, !tbaa !10
  %38 = load i64, ptr @H5E_CANTINIT_g, align 8, !tbaa !10
  %39 = call i32 (ptr, ptr, i32, i64, i64, ptr, ...) @H5E_printf_stack(ptr noundef nonnull @.str, ptr noundef nonnull @__func__.H5FD_locate_signature, i32 noundef 182, i64 noundef %37, i64 noundef %38, ptr noundef nonnull @.str.3) #12
  br label %50

40:                                               ; preds = %33
  %bcmp = call i32 @bcmp(ptr noundef nonnull dereferenceable(8) %3, ptr noundef nonnull dereferenceable(8) @.str.4, i64 8)
  %.not36 = icmp eq i32 %bcmp, 0
  br i1 %.not36, label %49, label %21

41:                                               ; preds = %21
  %42 = call i32 @H5FD_set_eoa(ptr noundef %0, i32 noundef 1, i64 noundef %12)
  %43 = icmp slt i32 %42, 0
  br i1 %43, label %44, label %48

44:                                               ; preds = %41
  %45 = load i64, ptr @H5E_IO_g, align 8, !tbaa !10
  %46 = load i64, ptr @H5E_CANTINIT_g, align 8, !tbaa !10
  %47 = call i32 (ptr, ptr, i32, i64, i64, ptr, ...) @H5E_printf_stack(ptr noundef nonnull @.str, ptr noundef nonnull @__func__.H5FD_locate_signature, i32 noundef 192, i64 noundef %45, i64 noundef %46, ptr noundef nonnull @.str.5) #12
  br label %50

48:                                               ; preds = %41
  store i64 -1, ptr %1, align 8, !tbaa !10
  br label %50

49:                                               ; preds = %40
  store i64 %25, ptr %1, align 8, !tbaa !10
  br label %50

50:                                               ; preds = %14, %29, %36, %44, %49, %48, %2
  %.0 = phi i32 [ -1, %14 ], [ -1, %29 ], [ -1, %36 ], [ -1, %44 ], [ 0, %48 ], [ 0, %49 ], [ 0, %2 ]
  call void @llvm.lifetime.end.p0(i64 8, ptr nonnull %3) #12
  ret i32 %.0
}